target datalayout = "e-m:e-p270:32:32-p271:32:32-p272:64:64-i64:64-i128:128-f80:128-n8:16:32:64-S128"
target triple = "x86_64-pc-linux-gnu"

%struct.AVCodecContext = type { ptr, i32, i32, ptr, i32, i32, ptr, ptr, ptr, i64, i32, i32, ptr, i32, %struct.AVRational, %struct.AVRational, %struct.AVRational, i32, i32, i32, i32, i32, %struct.AVRational, i32, i32, i32, i32, i32, i32, i32, i32, i32, i32, i32, ptr, ptr, i32, float, float, float, float, float, float, float, float, float, i32, i32, i32, i32, i32, i32, i32, i32, i32, i32, i32, i32, ptr, ptr, ptr, i32, i32, i32, i32, i32, i32, i32, i32, i32, i32, %struct.AVChannelLayout, i32, i32, i32, i32, i32, i32, i32, i32, ptr, i32, i32, i32, float, float, i32, i32, i32, i32, i32, ptr, i64, i64, float, float, i32, i32, ptr, ptr, i32, i32, i32, i32, i32, ptr, ptr, ptr, ptr, i32, i32, [8 x i64], i32, i32, i32, i32, i32, i32, i32, ptr, ptr, i32, i32, i32, i32, i32, i32, i32, i32, i32, i32, ptr, ptr, i32, i32, ptr, ptr, ptr, ptr, i32, i32, i64, i32, i32, i64, ptr, i64, ptr, i32, ptr, i32 }
%struct.AVRational = type { i32, i32 }
%struct.AVChannelLayout = type { i32, i32, %union.anon.0, ptr }
%union.anon.0 = type { i64 }
%struct.AVPacket = type { ptr, i64, i64, ptr, i32, i32, i32, ptr, i32, i64, i64, ptr, ptr, %struct.AVRational }
%struct.AVFrame = type { [8 x ptr], [8 x i32], ptr, i32, i32, i32, i32, i32, %struct.AVRational, i64, i64, %struct.AVRational, i32, ptr, i32, i32, [8 x ptr], ptr, i32, ptr, i32, i32, i32, i32, i32, i32, i32, i64, ptr, i32, ptr, ptr, i64, i64, i64, i64, ptr, %struct.AVChannelLayout, i64 }

; Function Attrs: nounwind uwtable
define internal i32 @bitpacked_decode_uyvy422(ptr noundef %0, ptr noundef %1, ptr noundef %2) #1 {
  %4 = alloca i32, align 4
  %5 = alloca ptr, align 8
  %6 = alloca ptr, align 8
  %7 = alloca ptr, align 8
  %8 = alloca i32, align 4
  %9 = alloca i32, align 4
  store ptr %0, ptr %5, align 8, !tbaa !4
  store ptr %1, ptr %6, align 8, !tbaa !38
  store ptr %2, ptr %7, align 8, !tbaa !41
  call void @llvm.lifetime.start.p0(i64 4, ptr %8) #4
  %10 = load ptr, ptr %7, align 8, !tbaa !41
  %11 = getelementptr inbounds nuw %struct.AVPacket, ptr %10, i32 0, i32 0
  %12 = load ptr, ptr %11, align 8, !tbaa !46
  %13 = call ptr @av_buffer_ref(ptr noundef %12)
  %14 = load ptr, ptr %6, align 8, !tbaa !38
  %15 = getelementptr inbounds nuw %struct.AVFrame, ptr %14, i32 0, i32 16
  %16 = getelementptr inbounds [8 x ptr], ptr %15, i64 0, i64 0
  store ptr %13, ptr %16, align 8, !tbaa !47
  %17 = load ptr, ptr %6, align 8, !tbaa !38
  %18 = getelementptr inbounds nuw %struct.AVFrame, ptr %17, i32 0, i32 16
  %19 = getelementptr inbounds [8 x ptr], ptr %18, i64 0, i64 0
  %20 = load ptr, ptr %19, align 8, !tbaa !47
  %21 = icmp ne ptr %20, null
  br i1 %21, label %23, label %22

22:                                               ; preds = %3
  store i32 -12, ptr %4, align 4
  store i32 1, ptr %9, align 4
  br label %51

23:                                               ; preds = %3
  %24 = load ptr, ptr %6, align 8, !tbaa !38
  %25 = getelementptr inbounds nuw %struct.AVFrame, ptr %24, i32 0, i32 0
  %26 = getelementptr inbounds [8 x ptr], ptr %25, i64 0, i64 0
  %27 = load ptr, ptr %6, align 8, !tbaa !38
  %28 = getelementptr inbounds nuw %struct.AVFrame, ptr %27, i32 0, i32 1
  %29 = getelementptr inbounds [8 x i32], ptr %28, i64 0, i64 0
  %30 = load ptr, ptr %7, align 8, !tbaa !41
  %31 = getelementptr inbounds nuw %struct.AVPacket, ptr %30, i32 0, i32 3
  %32 = load ptr, ptr %31, align 8, !tbaa !48
  %33 = load ptr, ptr %5, align 8, !tbaa !4
  %34 = getelementptr inbounds nuw %struct.AVCodecContext, ptr %33, i32 0, i32 23
  %35 = load i32, ptr %34, align 8, !tbaa !35
  %36 = load ptr, ptr %5, align 8, !tbaa !4
  %37 = getelementptr inbounds nuw %struct.AVCodecContext, ptr %36, i32 0, i32 18
  %38 = load i32, ptr %37, align 8, !tbaa !32
  %39 = load ptr, ptr %5, align 8, !tbaa !4
  %40 = getelementptr inbounds nuw %struct.AVCodecContext, ptr %39, i32 0, i32 19
  %41 = load i32, ptr %40, align 4, !tbaa !33
  %42 = call i32 @av_image_fill_arrays(ptr noundef %26, ptr noundef %29, ptr noundef %32, i32 noundef %35, i32 noundef %38, i32 noundef %41, i32 noundef 1)
  store i32 %42, ptr %8, align 4, !tbaa !45
  %43 = load i32, ptr %8, align 4, !tbaa !45
  %44 = icmp slt i32 %43, 0
  br i1 %44, label %45, label %50

45:                                               ; preds = %23
  %46 = load ptr, ptr %6, align 8, !tbaa !38
  %47 = getelementptr inbounds nuw %struct.AVFrame, ptr %46, i32 0, i32 16
  %48 = getelementptr inbounds [8 x ptr], ptr %47, i64 0, i64 0
  call void @av_buffer_unref(ptr noundef %48)
  %49 = load i32, ptr %8, align 4, !tbaa !45
  store i32 %49, ptr %4, align 4
  store i32 1, ptr %9, align 4
  br label %51

50:                                               ; preds = %23
  store i32 0, ptr %4, align 4
  store i32 1, ptr %9, align 4
  br label %51

51:                                               ; preds = %50, %45, %22
  call void @llvm.lifetime.end.p0(i64 4, ptr %8) #4
  %52 = load i32, ptr %4, align 4
  ret i32 %52
}