; Function Attrs: nounwind uwtable
define internal range(i32 -2147483648, 1) i32 @bitpacked_decode_uyvy422(ptr noundef readonly captures(none) %0, ptr noundef initializes((184, 192)) %1, ptr noundef readonly captures(none) %2) #1 {
  %4 = load ptr, ptr %2, align 8, !tbaa !37
  %5 = tail call ptr @av_buffer_ref(ptr noundef %4) #3
  %6 = getelementptr inbounds nuw i8, ptr %1, i64 184
  store ptr %5, ptr %6, align 8, !tbaa !38
  %.not = icmp eq ptr %5, null
  br i1 %.not, label %20, label %7

7:                                                ; preds = %3
  %8 = getelementptr inbounds nuw i8, ptr %1, i64 64
  %9 = getelementptr inbounds nuw i8, ptr %2, i64 24
  %10 = load ptr, ptr %9, align 8, !tbaa !39
  %11 = getelementptr inbounds nuw i8, ptr %0, i64 136
  %12 = load i32, ptr %11, align 8, !tbaa !31
  %13 = getelementptr inbounds nuw i8, ptr %0, i64 112
  %14 = load i32, ptr %13, align 8, !tbaa !28
  %15 = getelementptr inbounds nuw i8, ptr %0, i64 116
  %16 = load i32, ptr %15, align 4, !tbaa !29
  %17 = tail call i32 @av_image_fill_arrays(ptr noundef nonnull %1, ptr noundef nonnull %8, ptr noundef %10, i32 noundef %12, i32 noundef %14, i32 noundef %16, i32 noundef 1) #3
  %18 = icmp slt i32 %17, 0
  br i1 %18, label %19, label %20

19:                                               ; preds = %7
  tail call void @av_buffer_unref(ptr noundef nonnull %6) #3
  br label %20

20:                                               ; preds = %7, %3, %19
  %.0 = phi i32 [ %17, %19 ], [ -12, %3 ], [ 0, %7 ]
  ret i32 %.0
}